target datalayout = "e-m:e-p270:32:32-p271:32:32-p272:64:64-i64:64-i128:128-f80:128-n8:16:32:64-S128"
target triple = "x86_64-pc-linux-gnu"

%struct.RSA_PKEY_CTX = type { i32, ptr, i32, [2 x i32], i32, ptr, ptr, i32, i32, ptr, ptr, i64, i32 }
%struct.evp_pkey_ctx_st = type { i32, ptr, ptr, ptr, ptr, %union.anon, %struct.anon.4, ptr, ptr, ptr, i32, i32, ptr, ptr, ptr, ptr, ptr, i8, ptr }
%union.anon = type { %struct.anon.0 }
%struct.anon.0 = type { ptr, ptr }
%struct.anon.4 = type { ptr, ptr, i64, i8 }

@.str = private unnamed_addr constant [34 x i8] c"../openssl/crypto/rsa/rsa_pmeth.c\00", align 1
@__func__.pkey_rsa_verifyrecover = private unnamed_addr constant [23 x i8] c"pkey_rsa_verifyrecover\00", align 1

; Function Attrs: nounwind uwtable
define internal i32 @setup_tbuf(ptr noundef %0, ptr noundef %1) #0 {
  %3 = alloca i32, align 4
  %4 = alloca ptr, align 8
  %5 = alloca ptr, align 8
  store ptr %0, ptr %4, align 8, !tbaa !8
  store ptr %1, ptr %5, align 8, !tbaa !3
  %6 = load ptr, ptr %4, align 8, !tbaa !8
  %7 = getelementptr inbounds nuw %struct.RSA_PKEY_CTX, ptr %6, i32 0, i32 9
  %8 = load ptr, ptr %7, align 8, !tbaa !40
  %9 = icmp ne ptr %8, null
  br i1 %9, label %10, label %11

10:                                               ; preds = %2
  store i32 1, ptr %3, align 4
  br label %24

11:                                               ; preds = %2
  %12 = load ptr, ptr %5, align 8, !tbaa !3
  %13 = getelementptr inbounds nuw %struct.evp_pkey_ctx_st, ptr %12, i32 0, i32 14
  %14 = load ptr, ptr %13, align 8, !tbaa !52
  %15 = call ptr @EVP_PKEY_get0_RSA(ptr noundef %14)
  %16 = call i32 @RSA_size(ptr noundef %15)
  %17 = sext i32 %16 to i64
  %18 = call noalias ptr @CRYPTO_malloc(i64 noundef %17, ptr noundef @.str, i32 noundef 119)
  %19 = load ptr, ptr %4, align 8, !tbaa !8
  %20 = getelementptr inbounds nuw %struct.RSA_PKEY_CTX, ptr %19, i32 0, i32 9
  store ptr %18, ptr %20, align 8, !tbaa !40
  %21 = icmp eq ptr %18, null
  br i1 %21, label %22, label %23

22:                                               ; preds = %11
  store i32 0, ptr %3, align 4
  br label %24

23:                                               ; preds = %11
  store i32 1, ptr %3, align 4
  br label %24

24:                                               ; preds = %23, %22, %10
  %25 = load i32, ptr %3, align 4
  ret i32 %25
}

; Function Attrs: nounwind uwtable
define internal i32 @pkey_rsa_verifyrecover(ptr noundef %0, ptr noundef %1, ptr noundef %2, ptr noundef %3, i64 noundef %4) #0 {
  %6 = alloca i32, align 4
  %7 = alloca ptr, align 8
  %8 = alloca ptr, align 8
  %9 = alloca ptr, align 8
  %10 = alloca ptr, align 8
  %11 = alloca i64, align 8
  %12 = alloca i32, align 4
  %13 = alloca ptr, align 8
  %14 = alloca ptr, align 8
  %15 = alloca i32, align 4
  %16 = alloca i64, align 8
  store ptr %0, ptr %7, align 8, !tbaa !3
  store ptr %1, ptr %8, align 8, !tbaa !48
  store ptr %2, ptr %9, align 8, !tbaa !49
  store ptr %3, ptr %10, align 8, !tbaa !48
  store i64 %4, ptr %11, align 8, !tbaa !51
  call void @llvm.lifetime.start.p0(i64 4, ptr %12) #8
  call void @llvm.lifetime.start.p0(i64 8, ptr %13) #8
  %17 = load ptr, ptr %7, align 8, !tbaa !3
  %18 = getelementptr inbounds nuw %struct.evp_pkey_ctx_st, ptr %17, i32 0, i32 16
  %19 = load ptr, ptr %18, align 8, !tbaa !32
  store ptr %19, ptr %13, align 8, !tbaa !8
  call void @llvm.lifetime.start.p0(i64 8, ptr %14) #8
  %20 = load ptr, ptr %7, align 8, !tbaa !3
  %21 = getelementptr inbounds nuw %struct.evp_pkey_ctx_st, ptr %20, i32 0, i32 14
  %22 = load ptr, ptr %21, align 8, !tbaa !52
  %23 = call ptr @EVP_PKEY_get0_RSA(ptr noundef %22)
  store ptr %23, ptr %14, align 8, !tbaa !42
  %24 = load ptr, ptr %13, align 8, !tbaa !8
  %25 = getelementptr inbounds nuw %struct.RSA_PKEY_CTX, ptr %24, i32 0, i32 5
  %26 = load ptr, ptr %25, align 8, !tbaa !36
  %27 = icmp ne ptr %26, null
  br i1 %27, label %28, label %115

28:                                               ; preds = %5
  %29 = load ptr, ptr %13, align 8, !tbaa !8
  %30 = getelementptr inbounds nuw %struct.RSA_PKEY_CTX, ptr %29, i32 0, i32 4
  %31 = load i32, ptr %30, align 4, !tbaa !28
  %32 = icmp eq i32 %31, 5
  br i1 %32, label %33, label %88

33:                                               ; preds = %28
  %34 = load ptr, ptr %13, align 8, !tbaa !8
  %35 = load ptr, ptr %7, align 8, !tbaa !3
  %36 = call i32 @setup_tbuf(ptr noundef %34, ptr noundef %35)
  %37 = icmp ne i32 %36, 0
  br i1 %37, label %39, label %38

38:                                               ; preds = %33
  store i32 -1, ptr %6, align 4
  store i32 1, ptr %15, align 4
  br label %134

39:                                               ; preds = %33
  %40 = load i64, ptr %11, align 8, !tbaa !51
  %41 = trunc i64 %40 to i32
  %42 = load ptr, ptr %10, align 8, !tbaa !48
  %43 = load ptr, ptr %13, align 8, !tbaa !8
  %44 = getelementptr inbounds nuw %struct.RSA_PKEY_CTX, ptr %43, i32 0, i32 9
  %45 = load ptr, ptr %44, align 8, !tbaa !40
  %46 = load ptr, ptr %14, align 8, !tbaa !42
  %47 = call i32 @RSA_public_decrypt(i32 noundef %41, ptr noundef %42, ptr noundef %45, ptr noundef %46, i32 noundef 5)
  store i32 %47, ptr %12, align 4, !tbaa !47
  %48 = load i32, ptr %12, align 4, !tbaa !47
  %49 = icmp slt i32 %48, 1
  br i1 %49, label %50, label %51

50:                                               ; preds = %39
  store i32 0, ptr %6, align 4
  store i32 1, ptr %15, align 4
  br label %134

51:                                               ; preds = %39
  %52 = load i32, ptr %12, align 4, !tbaa !47
  %53 = add nsw i32 %52, -1
  store i32 %53, ptr %12, align 4, !tbaa !47
  %54 = load ptr, ptr %13, align 8, !tbaa !8
  %55 = getelementptr inbounds nuw %struct.RSA_PKEY_CTX, ptr %54, i32 0, i32 9
  %56 = load ptr, ptr %55, align 8, !tbaa !40
  %57 = load i32, ptr %12, align 4, !tbaa !47
  %58 = sext i32 %57 to i64
  %59 = getelementptr inbounds i8, ptr %56, i64 %58
  %60 = load i8, ptr %59, align 1, !tbaa !53
  %61 = zext i8 %60 to i32
  %62 = load ptr, ptr %13, align 8, !tbaa !8
  %63 = getelementptr inbounds nuw %struct.RSA_PKEY_CTX, ptr %62, i32 0, i32 5
  %64 = load ptr, ptr %63, align 8, !tbaa !36
  %65 = call i32 @EVP_MD_get_type(ptr noundef %64)
  %66 = call i32 @RSA_X931_hash_id(i32 noundef %65)
  %67 = icmp ne i32 %61, %66
  br i1 %67, label %68, label %69

68:                                               ; preds = %51
  call void @ERR_new()
  call void @ERR_set_debug(ptr noundef @.str, i32 noundef 235, ptr noundef @__func__.pkey_rsa_verifyrecover)
  call void (i32, i32, ptr, ...) @ERR_set_error(i32 noundef 4, i32 noundef 100, ptr noundef null)
  store i32 0, ptr %6, align 4
  store i32 1, ptr %15, align 4
  br label %134

69:                                               ; preds = %51
  %70 = load i32, ptr %12, align 4, !tbaa !47
  %71 = load ptr, ptr %13, align 8, !tbaa !8
  %72 = getelementptr inbounds nuw %struct.RSA_PKEY_CTX, ptr %71, i32 0, i32 5
  %73 = load ptr, ptr %72, align 8, !tbaa !36
  %74 = call i32 @EVP_MD_get_size(ptr noundef %73)
  %75 = icmp ne i32 %70, %74
  br i1 %75, label %76, label %77

76:                                               ; preds = %69
  call void @ERR_new()
  call void @ERR_set_debug(ptr noundef @.str, i32 noundef 239, ptr noundef @__func__.pkey_rsa_verifyrecover)
  call void (i32, i32, ptr, ...) @ERR_set_error(i32 noundef 4, i32 noundef 143, ptr noundef null)
  store i32 0, ptr %6, align 4
  store i32 1, ptr %15, align 4
  br label %134

77:                                               ; preds = %69
  %78 = load ptr, ptr %8, align 8, !tbaa !48
  %79 = icmp ne ptr %78, null
  br i1 %79, label %80, label %87

80:                                               ; preds = %77
  %81 = load ptr, ptr %8, align 8, !tbaa !48
  %82 = load ptr, ptr %13, align 8, !tbaa !8
  %83 = getelementptr inbounds nuw %struct.RSA_PKEY_CTX, ptr %82, i32 0, i32 9
  %84 = load ptr, ptr %83, align 8, !tbaa !40
  %85 = load i32, ptr %12, align 4, !tbaa !47
  %86 = sext i32 %85 to i64
  call void @llvm.memcpy.p0.p0.i64(ptr align 1 %81, ptr align 1 %84, i64 %86, i1 false)
  br label %87

87:                                               ; preds = %80, %77
  br label %114

88:                                               ; preds = %28
  %89 = load ptr, ptr %13, align 8, !tbaa !8
  %90 = getelementptr inbounds nuw %struct.RSA_PKEY_CTX, ptr %89, i32 0, i32 4
  %91 = load i32, ptr %90, align 4, !tbaa !28
  %92 = icmp eq i32 %91, 1
  br i1 %92, label %93, label %112

93:                                               ; preds = %88
  call void @llvm.lifetime.start.p0(i64 8, ptr %16) #8
  %94 = load ptr, ptr %13, align 8, !tbaa !8
  %95 = getelementptr inbounds nuw %struct.RSA_PKEY_CTX, ptr %94, i32 0, i32 5
  %96 = load ptr, ptr %95, align 8, !tbaa !36
  %97 = call i32 @EVP_MD_get_type(ptr noundef %96)
  %98 = load ptr, ptr %8, align 8, !tbaa !48
  %99 = load ptr, ptr %10, align 8, !tbaa !48
  %100 = load i64, ptr %11, align 8, !tbaa !51
  %101 = load ptr, ptr %14, align 8, !tbaa !42
  %102 = call i32 @ossl_rsa_verify(i32 noundef %97, ptr noundef null, i32 noundef 0, ptr noundef %98, ptr noundef %16, ptr noundef %99, i64 noundef %100, ptr noundef %101)
  store i32 %102, ptr %12, align 4, !tbaa !47
  %103 = load i32, ptr %12, align 4, !tbaa !47
  %104 = icmp sle i32 %103, 0
  br i1 %104, label %105, label %106

105:                                              ; preds = %93
  store i32 0, ptr %6, align 4
  store i32 1, ptr %15, align 4
  br label %109

106:                                              ; preds = %93
  %107 = load i64, ptr %16, align 8, !tbaa !51
  %108 = trunc i64 %107 to i32
  store i32 %108, ptr %12, align 4, !tbaa !47
  store i32 0, ptr %15, align 4
  br label %109

109:                                              ; preds = %106, %105
  call void @llvm.lifetime.end.p0(i64 8, ptr %16) #8
  %110 = load i32, ptr %15, align 4
  switch i32 %110, label %134 [
    i32 0, label %111
  ]

111:                                              ; preds = %109
  br label %113

112:                                              ; preds = %88
  store i32 -1, ptr %6, align 4
  store i32 1, ptr %15, align 4
  br label %134

113:                                              ; preds = %111
  br label %114

114:                                              ; preds = %113, %87
  br label %125

115:                                              ; preds = %5
  %116 = load i64, ptr %11, align 8, !tbaa !51
  %117 = trunc i64 %116 to i32
  %118 = load ptr, ptr %10, align 8, !tbaa !48
  %119 = load ptr, ptr %8, align 8, !tbaa !48
  %120 = load ptr, ptr %14, align 8, !tbaa !42
  %121 = load ptr, ptr %13, align 8, !tbaa !8
  %122 = getelementptr inbounds nuw %struct.RSA_PKEY_CTX, ptr %121, i32 0, i32 4
  %123 = load i32, ptr %122, align 4, !tbaa !28
  %124 = call i32 @RSA_public_decrypt(i32 noundef %117, ptr noundef %118, ptr noundef %119, ptr noundef %120, i32 noundef %123)
  store i32 %124, ptr %12, align 4, !tbaa !47
  br label %125

125:                                              ; preds = %115, %114
  %126 = load i32, ptr %12, align 4, !tbaa !47
  %127 = icmp slt i32 %126, 0
  br i1 %127, label %128, label %130

128:                                              ; preds = %125
  %129 = load i32, ptr %12, align 4, !tbaa !47
  store i32 %129, ptr %6, align 4
  store i32 1, ptr %15, align 4
  br label %134

130:                                              ; preds = %125
  %131 = load i32, ptr %12, align 4, !tbaa !47
  %132 = sext i32 %131 to i64
  %133 = load ptr, ptr %9, align 8, !tbaa !49
  store i64 %132, ptr %133, align 8, !tbaa !51
  store i32 1, ptr %6, align 4
  store i32 1, ptr %15, align 4
  br label %134

134:                                              ; preds = %130, %128, %112, %109, %76, %68, %50, %38
  call void @llvm.lifetime.end.p0(i64 8, ptr %14) #8
  call void @llvm.lifetime.end.p0(i64 8, ptr %13) #8
  call void @llvm.lifetime.end.p0(i64 4, ptr %12) #8
  %135 = load i32, ptr %6, align 4
  ret i32 %135
}