; Function Attrs: nounwind uwtable
define internal range(i32 -2147483648, 2) i32 @pkey_rsa_verifyrecover(ptr noundef readonly captures(none) %0, ptr noundef %1, ptr noundef writeonly captures(none) %2, ptr noundef %3, i64 noundef %4) #1 {
  %6 = alloca i64, align 8
  %7 = getelementptr inbounds nuw i8, ptr %0, i64 152
  %8 = load ptr, ptr %7, align 8, !tbaa !29
  %9 = getelementptr inbounds nuw i8, ptr %0, i64 136
  %10 = load ptr, ptr %9, align 8, !tbaa !51
  %11 = tail call ptr @EVP_PKEY_get0_RSA(ptr noundef %10) #9
  %12 = getelementptr inbounds nuw i8, ptr %8, i64 32
  %13 = load ptr, ptr %12, align 8, !tbaa !33
  %.not = icmp eq ptr %13, null
  br i1 %.not, label %53, label %14

14:                                               ; preds = %5
  %15 = getelementptr inbounds nuw i8, ptr %8, i64 28
  %16 = load i32, ptr %15, align 4, !tbaa !25
  switch i32 %16, label %60 [
    i32 5, label %17
    i32 1, label %47
  ]

17:                                               ; preds = %14
  %18 = getelementptr inbounds nuw i8, ptr %8, i64 56
  %19 = load ptr, ptr %18, align 8, !tbaa !37
  %.not.i = icmp eq ptr %19, null
  br i1 %.not.i, label %setup_tbuf.exit, label %setup_tbuf.exit.thread

setup_tbuf.exit:                                  ; preds = %17
  %20 = load ptr, ptr %9, align 8, !tbaa !51
  %21 = tail call ptr @EVP_PKEY_get0_RSA(ptr noundef %20) #9
  %22 = tail call i32 @RSA_size(ptr noundef %21) #9
  %23 = sext i32 %22 to i64
  %24 = tail call noalias ptr @CRYPTO_malloc(i64 noundef %23, ptr noundef nonnull @.str, i32 noundef 119) #9
  store ptr %24, ptr %18, align 8, !tbaa !37
  %.not54 = icmp eq ptr %24, null
  br i1 %.not54, label %60, label %setup_tbuf.exit.thread

setup_tbuf.exit.thread:                           ; preds = %17, %setup_tbuf.exit
  %25 = phi ptr [ %19, %17 ], [ %24, %setup_tbuf.exit ]
  %26 = trunc i64 %4 to i32
  %27 = tail call i32 @RSA_public_decrypt(i32 noundef %26, ptr noundef %3, ptr noundef nonnull %25, ptr noundef %11, i32 noundef 5) #9
  %28 = icmp slt i32 %27, 1
  br i1 %28, label %60, label %29

29:                                               ; preds = %setup_tbuf.exit.thread
  %30 = add nsw i32 %27, -1
  %31 = load ptr, ptr %18, align 8, !tbaa !37
  %32 = zext nneg i32 %30 to i64
  %33 = getelementptr inbounds nuw i8, ptr %31, i64 %32
  %34 = load i8, ptr %33, align 1, !tbaa !53
  %35 = zext i8 %34 to i32
  %36 = load ptr, ptr %12, align 8, !tbaa !33
  %37 = tail call i32 @EVP_MD_get_type(ptr noundef %36) #9
  %38 = tail call i32 @RSA_X931_hash_id(i32 noundef %37) #9
  %.not47 = icmp eq i32 %38, %35
  br i1 %.not47, label %40, label %39

39:                                               ; preds = %29
  tail call void @ERR_new() #9
  tail call void @ERR_set_debug(ptr noundef nonnull @.str, i32 noundef 235, ptr noundef nonnull @__func__.pkey_rsa_verifyrecover) #9
  tail call void (i32, i32, ptr, ...) @ERR_set_error(i32 noundef 4, i32 noundef 100, ptr noundef null) #9
  br label %60

40:                                               ; preds = %29
  %41 = load ptr, ptr %12, align 8, !tbaa !33
  %42 = tail call i32 @EVP_MD_get_size(ptr noundef %41) #9
  %.not48 = icmp eq i32 %30, %42
  br i1 %.not48, label %44, label %43

43:                                               ; preds = %40
  tail call void @ERR_new() #9
  tail call void @ERR_set_debug(ptr noundef nonnull @.str, i32 noundef 239, ptr noundef nonnull @__func__.pkey_rsa_verifyrecover) #9
  tail call void (i32, i32, ptr, ...) @ERR_set_error(i32 noundef 4, i32 noundef 143, ptr noundef null) #9
  br label %60

44:                                               ; preds = %40
  %.not49 = icmp eq ptr %1, null
  br i1 %.not49, label %.thread, label %45

45:                                               ; preds = %44
  %46 = load ptr, ptr %18, align 8, !tbaa !37
  tail call void @llvm.memcpy.p0.p0.i64(ptr nonnull align 1 %1, ptr align 1 %46, i64 %32, i1 false)
  br label %.thread

47:                                               ; preds = %14
  call void @llvm.lifetime.start.p0(i64 8, ptr nonnull %6) #9
  %48 = tail call i32 @EVP_MD_get_type(ptr noundef nonnull %13) #9
  %49 = call i32 @ossl_rsa_verify(i32 noundef %48, ptr noundef null, i32 noundef 0, ptr noundef %1, ptr noundef nonnull %6, ptr noundef %3, i64 noundef %4, ptr noundef %11) #9
  %50 = icmp sgt i32 %49, 0
  %51 = load i64, ptr %6, align 8
  %52 = trunc i64 %51 to i32
  call void @llvm.lifetime.end.p0(i64 8, ptr nonnull %6) #9
  br i1 %50, label %58, label %60

53:                                               ; preds = %5
  %54 = trunc i64 %4 to i32
  %55 = getelementptr inbounds nuw i8, ptr %8, i64 28
  %56 = load i32, ptr %55, align 4, !tbaa !25
  %57 = tail call i32 @RSA_public_decrypt(i32 noundef %54, ptr noundef %3, ptr noundef %1, ptr noundef %11, i32 noundef %56) #9
  br label %58

58:                                               ; preds = %47, %53
  %.140 = phi i32 [ %52, %47 ], [ %57, %53 ]
  %59 = icmp slt i32 %.140, 0
  br i1 %59, label %60, label %..thread_crit_edge

..thread_crit_edge:                               ; preds = %58
  %.pre = zext nneg i32 %.140 to i64
  br label %.thread

.thread:                                          ; preds = %..thread_crit_edge, %44, %45
  %.pre-phi = phi i64 [ %.pre, %..thread_crit_edge ], [ %32, %44 ], [ %32, %45 ]
  store i64 %.pre-phi, ptr %2, align 8, !tbaa !54
  br label %60

60:                                               ; preds = %58, %14, %setup_tbuf.exit.thread, %setup_tbuf.exit, %47, %.thread, %43, %39
  %.038 = phi i32 [ 0, %39 ], [ 0, %43 ], [ 1, %.thread ], [ 0, %47 ], [ -1, %setup_tbuf.exit ], [ 0, %setup_tbuf.exit.thread ], [ -1, %14 ], [ %.140, %58 ]
  ret i32 %.038
}